; Function Attrs: mustprogress nofree norecurse nosync nounwind willreturn memory(readwrite, inaccessiblemem: none) uwtable
define hidden void @_ZN9Assembler6vxorpsE11XMMRegisterS0_S0_i(ptr noundef nonnull align 8 dereferenceable(40) %0, i32 %1, i32 %2, i32 %3, i32 noundef %4) local_unnamed_addr #8 align 2 {
  %6 = alloca %class.InstructionAttr, align 8
  %7 = getelementptr inbounds i8, ptr %0, i64 25
  %8 = load i8, ptr %7, align 1
  %9 = trunc i8 %8 to i1
  store i8 0, ptr %6, align 8
  %10 = getelementptr inbounds i8, ptr %6, i64 1
  %11 = load i32, ptr @UseAVX, align 4
  %12 = icmp slt i32 %11, 3
  %13 = select i1 %9, i1 true, i1 %12
  %14 = zext i1 %13 to i8
  store i8 %14, ptr %10, align 1
  %15 = getelementptr inbounds i8, ptr %6, i64 2
  store <4 x i8> <i8 1, i8 1, i8 0, i8 0>, ptr %15, align 2
  %16 = getelementptr inbounds i8, ptr %6, i64 6
  store i8 1, ptr %16, align 2
  %17 = getelementptr inbounds i8, ptr %6, i64 7
  store i8 0, ptr %17, align 1
  %18 = getelementptr inbounds i8, ptr %6, i64 8
  store i32 %4, ptr %18, align 8
  %19 = getelementptr inbounds i8, ptr %6, i64 12
  store <4 x i32> <i32 24, i32 4, i32 0, i32 0>, ptr %19, align 4
  %20 = getelementptr inbounds i8, ptr %6, i64 32
  store ptr null, ptr %20, align 8
  %21 = sext i32 %1 to i64
  %22 = getelementptr inbounds %"class.XMMRegister::XMMRegisterImpl", ptr getelementptr inbounds (i8, ptr @all_XMMRegisterImpls, i64 1), i64 %21
  %23 = ptrtoint ptr %22 to i64
  %24 = trunc i64 %23 to i32
  %25 = sub i32 %24, ptrtoint (ptr getelementptr inbounds (i8, ptr @all_XMMRegisterImpls, i64 1) to i32)
  %26 = sext i32 %2 to i64
  %27 = getelementptr inbounds %"class.XMMRegister::XMMRegisterImpl", ptr getelementptr inbounds (i8, ptr @all_XMMRegisterImpls, i64 1), i64 %26
  %28 = ptrtoint ptr %27 to i64
  %29 = trunc i64 %28 to i32
  %30 = sub i32 %29, ptrtoint (ptr getelementptr inbounds (i8, ptr @all_XMMRegisterImpls, i64 1) to i32)
  %31 = sext i32 %3 to i64
  %32 = getelementptr inbounds %"class.XMMRegister::XMMRegisterImpl", ptr getelementptr inbounds (i8, ptr @all_XMMRegisterImpls, i64 1), i64 %31
  %33 = ptrtoint ptr %32 to i64
  %34 = trunc i64 %33 to i32
  %35 = sub i32 %34, ptrtoint (ptr getelementptr inbounds (i8, ptr @all_XMMRegisterImpls, i64 1) to i32)
  %36 = call noundef i32 @_ZN9Assembler21vex_prefix_and_encodeEiiiNS_13VexSimdPrefixENS_9VexOpcodeEP15InstructionAttrb(ptr noundef nonnull align 8 dereferenceable(40) %0, i32 noundef %25, i32 noundef %30, i32 noundef %35, i32 noundef 0, i32 noundef 1, ptr noundef nonnull %6, i1 noundef zeroext false)
  %37 = getelementptr inbounds i8, ptr %0, i64 8
  %38 = load ptr, ptr %37, align 8
  %39 = trunc nuw nsw i32 %36 to i8
  %.0.i2.i = or disjoint i8 %39, -64
  %40 = getelementptr inbounds i8, ptr %38, i64 16
  %41 = load ptr, ptr %40, align 8
  %42 = getelementptr inbounds i8, ptr %41, i64 1
  store i8 87, ptr %41, align 1
  %43 = getelementptr inbounds i8, ptr %41, i64 2
  store i8 %.0.i2.i, ptr %42, align 1
  store ptr %43, ptr %40, align 8
  %44 = load ptr, ptr %20, align 8
  %.not.i = icmp eq ptr %44, null
  br i1 %.not.i, label %_ZN15InstructionAttrD2Ev.exit, label %45

45:                                               ; preds = %5
  %46 = getelementptr inbounds i8, ptr %44, i64 32
  store ptr null, ptr %46, align 8
  br label %_ZN15InstructionAttrD2Ev.exit

_ZN15InstructionAttrD2Ev.exit:                    ; preds = %5, %45
  ret void
}